; Function Attrs: mustprogress nounwind uwtable
define dso_local void @_ZN5clang14JSONNodeDumper17VisitConstantExprEPKNS_12ConstantExprE(ptr noundef nonnull align 8 dereferenceable(1312) %0, ptr noundef %1) local_unnamed_addr #0 align 2 {
  %3 = alloca %"class.clang::APValue", align 8
  %4 = load i32, ptr %1, align 8
  %5 = and i32 %4, 15728640
  %.not = icmp eq i32 %5, 0
  br i1 %.not, label %_ZN5clang7APValueD2Ev.exit, label %6

6:                                                ; preds = %2
  call void @_ZNK5clang12ConstantExpr16getAPValueResultEv(ptr dead_on_unwind nonnull writable sret(%"class.clang::APValue") align 8 %3, ptr noundef nonnull align 8 dereferenceable(24) %1) #20
  %7 = getelementptr inbounds nuw i8, ptr %1, i64 8
  %.sroa.0.0.copyload.i = load i64, ptr %7, align 8
  call void @_ZN5clang14JSONNodeDumper5VisitERKNS_7APValueENS_8QualTypeE(ptr noundef nonnull align 8 dereferenceable(1312) %0, ptr noundef nonnull align 8 dereferenceable(72) %3, i64 %.sroa.0.0.copyload.i)
  %8 = load i32, ptr %3, align 8
  %switch.i = icmp ult i32 %8, 2
  br i1 %switch.i, label %_ZN5clang7APValueD2Ev.exit, label %9

9:                                                ; preds = %6
  call void @_ZN5clang7APValue24DestroyDataAndMakeUninitEv(ptr noundef nonnull align 8 dereferenceable(72) %3) #20
  br label %_ZN5clang7APValueD2Ev.exit

_ZN5clang7APValueD2Ev.exit:                       ; preds = %9, %6, %2
  ret void
}